; Function Attrs: nounwind uwtable
define i32 @b2Body_GetWorld(i64 %0) local_unnamed_addr #0 {
  %.sroa.1.0.extract.shift = lshr i64 %0, 32
  %.sroa.1.0.extract.trunc = trunc nuw i64 %.sroa.1.0.extract.shift to i32
  %2 = and i32 %.sroa.1.0.extract.trunc, 65535
  %3 = tail call ptr @b2GetWorld(i32 noundef %2) #10
  %4 = add i32 %.sroa.1.0.extract.trunc, 1
  %5 = getelementptr inbounds nuw i8, ptr %3, i64 1592
  %6 = load i16, ptr %5, align 8, !tbaa !222
  %.sroa.2.0.insert.ext = zext i16 %6 to i32
  %.sroa.2.0.insert.shift = shl nuw i32 %.sroa.2.0.insert.ext, 16
  %.sroa.02.0.insert.ext = and i32 %4, 65535
  %.sroa.02.0.insert.insert = or disjoint i32 %.sroa.2.0.insert.shift, %.sroa.02.0.insert.ext
  ret i32 %.sroa.02.0.insert.insert
}